target datalayout = "e-m:e-p270:32:32-p271:32:32-p272:64:64-i64:64-i128:128-f80:128-n8:16:32:64-S128"
target triple = "x86_64-unknown-linux-gnu"

%"class.icu_75::UObject" = type { ptr }
%"class.icu_75::DateFormat" = type { %"class.icu_75::Format.base", ptr, ptr, %"class.icu_75::EnumSet", i32 }
%"class.icu_75::Format.base" = type <{ %"class.icu_75::UObject", [157 x i8], [157 x i8] }>
%"class.icu_75::EnumSet" = type { i32 }

; Function Attrs: mustprogress nounwind uwtable
define linkonce_odr noundef i32 @_ZNK6icu_757EnumSetI27UDateFormatBooleanAttributeLj0ELj4EE4flagES1_(ptr noundef nonnull align 4 dereferenceable(4) %this, i32 noundef %toCheck) #0 comdat align 2 {
entry:
  %this.addr = alloca ptr, align 8
  %toCheck.addr = alloca i32, align 4
  store ptr %this, ptr %this.addr, align 8
  store i32 %toCheck, ptr %toCheck.addr, align 4
  %0 = load i32, ptr %toCheck.addr, align 4
  %sub = sub i32 %0, 0
  %shl = shl i32 1, %sub
  ret i32 %shl
}

; Function Attrs: mustprogress uwtable
define linkonce_odr void @_ZN6icu_757EnumSetI27UDateFormatBooleanAttributeLj0ELj4EE3setES1_i(ptr noundef nonnull align 4 dereferenceable(4) %this, i32 noundef %toSet, i32 noundef %v) #2 comdat align 2 {
entry:
  %this.addr = alloca ptr, align 8
  %toSet.addr = alloca i32, align 4
  %v.addr = alloca i32, align 4
  store ptr %this, ptr %this.addr, align 8
  store i32 %toSet, ptr %toSet.addr, align 4
  store i32 %v, ptr %v.addr, align 4
  %this1 = load ptr, ptr %this.addr, align 8
  %fBools = getelementptr inbounds %"class.icu_75::EnumSet", ptr %this1, i32 0, i32 0
  %0 = load i32, ptr %fBools, align 4
  %1 = load i32, ptr %toSet.addr, align 4
  %call = call noundef i32 @_ZNK6icu_757EnumSetI27UDateFormatBooleanAttributeLj0ELj4EE4flagES1_(ptr noundef nonnull align 4 dereferenceable(4) %this1, i32 noundef %1)
  %not = xor i32 %call, -1
  %and = and i32 %0, %not
  %2 = load i32, ptr %v.addr, align 4
  %tobool = icmp ne i32 %2, 0
  br i1 %tobool, label %cond.true, label %cond.false

cond.true:                                        ; preds = %entry
  %3 = load i32, ptr %toSet.addr, align 4
  %call2 = call noundef i32 @_ZNK6icu_757EnumSetI27UDateFormatBooleanAttributeLj0ELj4EE4flagES1_(ptr noundef nonnull align 4 dereferenceable(4) %this1, i32 noundef %3)
  br label %cond.end

cond.false:                                       ; preds = %entry
  br label %cond.end

cond.end:                                         ; preds = %cond.false, %cond.true
  %cond = phi i32 [ %call2, %cond.true ], [ 0, %cond.false ]
  %or = or i32 %and, %cond
  %fBools3 = getelementptr inbounds %"class.icu_75::EnumSet", ptr %this1, i32 0, i32 0
  store i32 %or, ptr %fBools3, align 4
  ret void
}

; Function Attrs: mustprogress nounwind uwtable
define linkonce_odr noundef signext i8 @_ZNK6icu_757EnumSetI27UDateFormatBooleanAttributeLj0ELj4EE12isValidValueEi(ptr noundef nonnull align 4 dereferenceable(4) %this, i32 noundef %v) #0 comdat align 2 {
entry:
  %this.addr = alloca ptr, align 8
  %v.addr = alloca i32, align 4
  store ptr %this, ptr %this.addr, align 8
  store i32 %v, ptr %v.addr, align 4
  %0 = load i32, ptr %v.addr, align 4
  %cmp = icmp eq i32 %0, 0
  br i1 %cmp, label %lor.end, label %lor.rhs

lor.rhs:                                          ; preds = %entry
  %1 = load i32, ptr %v.addr, align 4
  %cmp2 = icmp eq i32 %1, 1
  br label %lor.end

lor.end:                                          ; preds = %lor.rhs, %entry
  %2 = phi i1 [ true, %entry ], [ %cmp2, %lor.rhs ]
  %conv = zext i1 %2 to i8
  ret i8 %conv
}

; Function Attrs: mustprogress uwtable
define noundef nonnull align 8 dereferenceable(352) ptr @_ZN6icu_7510DateFormat19setBooleanAttributeE27UDateFormatBooleanAttributeaR10UErrorCode(ptr noundef nonnull align 8 dereferenceable(352) %this, i32 noundef %attr, i8 noundef signext %newValue, ptr noundef nonnull align 4 dereferenceable(4) %status) unnamed_addr #2 align 2 {
entry:
  %this.addr = alloca ptr, align 8
  %attr.addr = alloca i32, align 4
  %newValue.addr = alloca i8, align 1
  %status.addr = alloca ptr, align 8
  store ptr %this, ptr %this.addr, align 8
  store i32 %attr, ptr %attr.addr, align 4
  store i8 %newValue, ptr %newValue.addr, align 1
  store ptr %status, ptr %status.addr, align 8
  %this1 = load ptr, ptr %this.addr, align 8
  %fBoolFlags = getelementptr inbounds %"class.icu_75::DateFormat", ptr %this1, i32 0, i32 3
  %0 = load i8, ptr %newValue.addr, align 1
  %conv = sext i8 %0 to i32
  %call = call noundef signext i8 @_ZNK6icu_757EnumSetI27UDateFormatBooleanAttributeLj0ELj4EE12isValidValueEi(ptr noundef nonnull align 4 dereferenceable(4) %fBoolFlags, i32 noundef %conv)
  %tobool = icmp ne i8 %call, 0
  br i1 %tobool, label %if.else, label %if.then

if.then:                                          ; preds = %entry
  %1 = load ptr, ptr %status.addr, align 8
  store i32 1, ptr %1, align 4
  br label %if.end

if.else:                                          ; preds = %entry
  %fBoolFlags2 = getelementptr inbounds %"class.icu_75::DateFormat", ptr %this1, i32 0, i32 3
  %2 = load i32, ptr %attr.addr, align 4
  %3 = load i8, ptr %newValue.addr, align 1
  %conv3 = sext i8 %3 to i32
  call void @_ZN6icu_757EnumSetI27UDateFormatBooleanAttributeLj0ELj4EE3setES1_i(ptr noundef nonnull align 4 dereferenceable(4) %fBoolFlags2, i32 noundef %2, i32 noundef %conv3)
  br label %if.end

if.end:                                           ; preds = %if.else, %if.then
  ret ptr %this1
}