; Function Attrs: mustprogress nofree norecurse nosync nounwind willreturn memory(argmem: readwrite) uwtable
define noundef nonnull align 8 dereferenceable(352) ptr @_ZN6icu_7510DateFormat19setBooleanAttributeE27UDateFormatBooleanAttributeaR10UErrorCode(ptr noundef nonnull returned align 8 dereferenceable(352) %this, i32 noundef %attr, i8 noundef signext %newValue, ptr nocapture noundef nonnull writeonly align 4 dereferenceable(4) %status) unnamed_addr #7 align 2 {
entry:
  %0 = icmp ugt i8 %newValue, 1
  br i1 %0, label %if.then, label %if.else

if.then:                                          ; preds = %entry
  store i32 1, ptr %status, align 4
  br label %if.end

if.else:                                          ; preds = %entry
  %fBoolFlags = getelementptr inbounds i8, ptr %this, i64 344
  %1 = load i32, ptr %fBoolFlags, align 8
  %shl.i.i = shl nuw i32 1, %attr
  %tobool.not.i = icmp eq i8 %newValue, 0
  %spec.select.i = select i1 %tobool.not.i, i32 0, i32 %shl.i.i
  %not.i = xor i32 %shl.i.i, -1
  %and.i = and i32 %1, %not.i
  %or.i = or i32 %and.i, %spec.select.i
  store i32 %or.i, ptr %fBoolFlags, align 8
  br label %if.end

if.end:                                           ; preds = %if.else, %if.then
  ret ptr %this
}